; Function Attrs: mustprogress uwtable
define noundef nonnull align 8 dereferenceable(24) ptr @_ZN8QuantLib5MoneymIERKS0_(ptr noundef nonnull returned align 8 dereferenceable(24) %this, ptr nocapture noundef nonnull readonly align 8 dereferenceable(24) %m) local_unnamed_addr #0 align 2 personality ptr @__gxx_personality_v0 {
entry:
  %ref.tmp = alloca %"class.QuantLib::Money", align 8
  call void @llvm.lifetime.start.p0(i64 24, ptr nonnull %ref.tmp) #21
  tail call void @llvm.experimental.noalias.scope.decl(metadata !32)
  %0 = load double, ptr %m, align 8, !tbaa !16, !noalias !32
  %currency_.i = getelementptr inbounds nuw i8, ptr %m, i64 8
  %1 = load ptr, ptr %currency_.i, align 8, !tbaa !4, !noalias !32
  %pn3.i.i.i = getelementptr inbounds nuw i8, ptr %m, i64 16
  %2 = load ptr, ptr %pn3.i.i.i, align 8, !tbaa !22, !noalias !32
  %cmp.not.i.i.i.i = icmp eq ptr %2, null
  br i1 %cmp.not.i.i.i.i, label %_ZNK8QuantLib5MoneyngEv.exit, label %if.then.i.i.i.i

if.then.i.i.i.i:                                  ; preds = %entry
  %use_count_.i.i.i.i.i = getelementptr inbounds nuw i8, ptr %2, i64 8
  %3 = atomicrmw add ptr %use_count_.i.i.i.i.i, i32 1 monotonic, align 4, !noalias !32
  br label %_ZNK8QuantLib5MoneyngEv.exit

_ZNK8QuantLib5MoneyngEv.exit:                     ; preds = %entry, %if.then.i.i.i.i
  %fneg.i = fneg double %0
  store double %fneg.i, ptr %ref.tmp, align 8, !tbaa !16, !alias.scope !32
  %currency_.i.i = getelementptr inbounds nuw i8, ptr %ref.tmp, i64 8
  store ptr %1, ptr %currency_.i.i, align 8, !tbaa !4, !alias.scope !32
  %pn.i.i.i.i = getelementptr inbounds nuw i8, ptr %ref.tmp, i64 16
  store ptr %2, ptr %pn.i.i.i.i, align 8, !tbaa !22, !alias.scope !32
  %call = invoke noundef nonnull align 8 dereferenceable(24) ptr @_ZN8QuantLib5MoneypLERKS0_(ptr noundef nonnull align 8 dereferenceable(24) %this, ptr noundef nonnull align 8 dereferenceable(24) %ref.tmp)
          to label %invoke.cont unwind label %lpad

invoke.cont:                                      ; preds = %_ZNK8QuantLib5MoneyngEv.exit
  %4 = load ptr, ptr %pn.i.i.i.i, align 8, !tbaa !22
  %cmp.not.i.i.i.i1 = icmp eq ptr %4, null
  br i1 %cmp.not.i.i.i.i1, label %_ZN8QuantLib5MoneyD2Ev.exit, label %if.then.i.i.i.i2

if.then.i.i.i.i2:                                 ; preds = %invoke.cont
  %use_count_.i.i.i.i.i3 = getelementptr inbounds nuw i8, ptr %4, i64 8
  %5 = atomicrmw sub ptr %use_count_.i.i.i.i.i3, i32 1 acq_rel, align 4
  %cmp.i.i.i.i.i = icmp eq i32 %5, 1
  br i1 %cmp.i.i.i.i.i, label %if.then.i.i.i.i.i, label %_ZN8QuantLib5MoneyD2Ev.exit

if.then.i.i.i.i.i:                                ; preds = %if.then.i.i.i.i2
  %vtable.i.i.i.i.i = load ptr, ptr %4, align 8, !tbaa !23
  %vfn.i.i.i.i.i = getelementptr inbounds i8, ptr %vtable.i.i.i.i.i, i64 16
  %6 = load ptr, ptr %vfn.i.i.i.i.i, align 8
  invoke void %6(ptr noundef nonnull align 8 dereferenceable(16) %4)
          to label %.noexc.i.i.i.i unwind label %terminate.lpad.i.i.i.i

.noexc.i.i.i.i:                                   ; preds = %if.then.i.i.i.i.i
  %weak_count_.i.i.i.i.i.i = getelementptr inbounds nuw i8, ptr %4, i64 12
  %7 = atomicrmw sub ptr %weak_count_.i.i.i.i.i.i, i32 1 acq_rel, align 4
  %cmp.i.i.i.i.i.i = icmp eq i32 %7, 1
  br i1 %cmp.i.i.i.i.i.i, label %if.then.i.i.i.i.i.i, label %_ZN8QuantLib5MoneyD2Ev.exit

if.then.i.i.i.i.i.i:                              ; preds = %.noexc.i.i.i.i
  %vtable.i.i.i.i.i.i = load ptr, ptr %4, align 8, !tbaa !23
  %vfn.i.i.i.i.i.i = getelementptr inbounds i8, ptr %vtable.i.i.i.i.i.i, i64 24
  %8 = load ptr, ptr %vfn.i.i.i.i.i.i, align 8
  invoke void %8(ptr noundef nonnull align 8 dereferenceable(16) %4)
          to label %_ZN8QuantLib5MoneyD2Ev.exit unwind label %terminate.lpad.i.i.i.i

terminate.lpad.i.i.i.i:                           ; preds = %if.then.i.i.i.i.i.i, %if.then.i.i.i.i.i
  %9 = landingpad { ptr, i32 }
          catch ptr null
  %10 = extractvalue { ptr, i32 } %9, 0
  call void @__clang_call_terminate(ptr %10) #22
  unreachable

_ZN8QuantLib5MoneyD2Ev.exit:                      ; preds = %invoke.cont, %if.then.i.i.i.i2, %.noexc.i.i.i.i, %if.then.i.i.i.i.i.i
  call void @llvm.lifetime.end.p0(i64 24, ptr nonnull %ref.tmp) #21
  ret ptr %this

lpad:                                             ; preds = %_ZNK8QuantLib5MoneyngEv.exit
  %11 = landingpad { ptr, i32 }
          cleanup
  call void @_ZN8QuantLib5MoneyD2Ev(ptr noundef nonnull align 8 dereferenceable(24) %ref.tmp) #21
  call void @llvm.lifetime.end.p0(i64 24, ptr nonnull %ref.tmp) #21
  resume { ptr, i32 } %11
}